target datalayout = "e-m:e-p270:32:32-p271:32:32-p272:64:64-i64:64-i128:128-f80:128-n8:16:32:64-S128"
target triple = "x86_64-pc-linux-gnu"

%struct.jpeg_compress_struct = type { ptr, ptr, ptr, ptr, i32, i32, ptr, i32, i32, i32, i32, double, i32, i32, i32, ptr, [4 x ptr], [4 x ptr], [4 x ptr], [16 x i8], [16 x i8], [16 x i8], i32, ptr, i32, i32, i32, i32, i32, i32, i32, i32, i32, i8, i8, i8, i16, i16, i32, i32, i32, i32, i32, i32, i32, [4 x ptr], i32, i32, i32, [10 x i32], i32, i32, i32, i32, ptr, ptr, ptr, ptr, ptr, ptr, ptr, ptr, ptr, ptr, i32 }
%struct.jpeg_error_mgr = type { ptr, ptr, ptr, ptr, ptr, i32, %union.anon, i32, i64, ptr, i32, ptr, i32, i32 }
%union.anon = type { [8 x i32], [48 x i8] }
%struct.ppm_source_struct = type { %struct.cjpeg_source_struct, ptr, ptr, i64, ptr, i32 }
%struct.cjpeg_source_struct = type { ptr, ptr, ptr, ptr, ptr, ptr, ptr, i32, i32 }

; Function Attrs: nounwind uwtable
define internal i32 @get_scaled_gray_row(ptr noundef %0, ptr noundef %1) #0 {
  %3 = alloca ptr, align 8
  %4 = alloca ptr, align 8
  %5 = alloca ptr, align 8
  %6 = alloca ptr, align 8
  %7 = alloca ptr, align 8
  %8 = alloca ptr, align 8
  %9 = alloca i32, align 4
  store ptr %0, ptr %3, align 8, !tbaa !4
  store ptr %1, ptr %4, align 8, !tbaa !46
  call void @llvm.lifetime.start.p0(i64 8, ptr %5) #6
  %10 = load ptr, ptr %4, align 8, !tbaa !46
  store ptr %10, ptr %5, align 8, !tbaa !37
  call void @llvm.lifetime.start.p0(i64 8, ptr %6) #6
  call void @llvm.lifetime.start.p0(i64 8, ptr %7) #6
  call void @llvm.lifetime.start.p0(i64 8, ptr %8) #6
  %11 = load ptr, ptr %5, align 8, !tbaa !37
  %12 = getelementptr inbounds nuw %struct.ppm_source_struct, ptr %11, i32 0, i32 4
  %13 = load ptr, ptr %12, align 8, !tbaa !66
  store ptr %13, ptr %8, align 8, !tbaa !73
  call void @llvm.lifetime.start.p0(i64 4, ptr %9) #6
  %14 = load ptr, ptr %5, align 8, !tbaa !37
  %15 = getelementptr inbounds nuw %struct.ppm_source_struct, ptr %14, i32 0, i32 1
  %16 = load ptr, ptr %15, align 8, !tbaa !61
  %17 = load ptr, ptr %5, align 8, !tbaa !37
  %18 = getelementptr inbounds nuw %struct.ppm_source_struct, ptr %17, i32 0, i32 3
  %19 = load i64, ptr %18, align 8, !tbaa !60
  %20 = load ptr, ptr %5, align 8, !tbaa !37
  %21 = getelementptr inbounds nuw %struct.ppm_source_struct, ptr %20, i32 0, i32 0
  %22 = getelementptr inbounds nuw %struct.cjpeg_source_struct, ptr %21, i32 0, i32 3
  %23 = load ptr, ptr %22, align 8, !tbaa !48
  %24 = call i64 @fread(ptr noundef %16, i64 noundef 1, i64 noundef %19, ptr noundef %23)
  %25 = load ptr, ptr %5, align 8, !tbaa !37
  %26 = getelementptr inbounds nuw %struct.ppm_source_struct, ptr %25, i32 0, i32 3
  %27 = load i64, ptr %26, align 8, !tbaa !60
  %28 = icmp eq i64 %24, %27
  br i1 %28, label %40, label %29

29:                                               ; preds = %2
  %30 = load ptr, ptr %3, align 8, !tbaa !4
  %31 = getelementptr inbounds nuw %struct.jpeg_compress_struct, ptr %30, i32 0, i32 0
  %32 = load ptr, ptr %31, align 8, !tbaa !27
  %33 = getelementptr inbounds nuw %struct.jpeg_error_mgr, ptr %32, i32 0, i32 5
  store i32 43, ptr %33, align 8, !tbaa !28
  %34 = load ptr, ptr %3, align 8, !tbaa !4
  %35 = getelementptr inbounds nuw %struct.jpeg_compress_struct, ptr %34, i32 0, i32 0
  %36 = load ptr, ptr %35, align 8, !tbaa !27
  %37 = getelementptr inbounds nuw %struct.jpeg_error_mgr, ptr %36, i32 0, i32 0
  %38 = load ptr, ptr %37, align 8, !tbaa !33
  %39 = load ptr, ptr %3, align 8, !tbaa !4
  call void %38(ptr noundef %39)
  br label %40

40:                                               ; preds = %29, %2
  %41 = load ptr, ptr %5, align 8, !tbaa !37
  %42 = getelementptr inbounds nuw %struct.ppm_source_struct, ptr %41, i32 0, i32 0
  %43 = getelementptr inbounds nuw %struct.cjpeg_source_struct, ptr %42, i32 0, i32 4
  %44 = load ptr, ptr %43, align 8, !tbaa !63
  %45 = getelementptr inbounds ptr, ptr %44, i64 0
  %46 = load ptr, ptr %45, align 8, !tbaa !73
  store ptr %46, ptr %6, align 8, !tbaa !73
  %47 = load ptr, ptr %5, align 8, !tbaa !37
  %48 = getelementptr inbounds nuw %struct.ppm_source_struct, ptr %47, i32 0, i32 1
  %49 = load ptr, ptr %48, align 8, !tbaa !61
  store ptr %49, ptr %7, align 8, !tbaa !73
  %50 = load ptr, ptr %3, align 8, !tbaa !4
  %51 = getelementptr inbounds nuw %struct.jpeg_compress_struct, ptr %50, i32 0, i32 7
  %52 = load i32, ptr %51, align 8, !tbaa !51
  store i32 %52, ptr %9, align 4, !tbaa !49
  br label %53

53:                                               ; preds = %67, %40
  %54 = load i32, ptr %9, align 4, !tbaa !49
  %55 = icmp ugt i32 %54, 0
  br i1 %55, label %56, label %70

56:                                               ; preds = %53
  %57 = load ptr, ptr %8, align 8, !tbaa !73
  %58 = load ptr, ptr %7, align 8, !tbaa !73
  %59 = getelementptr inbounds nuw i8, ptr %58, i32 1
  store ptr %59, ptr %7, align 8, !tbaa !73
  %60 = load i8, ptr %58, align 1, !tbaa !32
  %61 = zext i8 %60 to i32
  %62 = sext i32 %61 to i64
  %63 = getelementptr inbounds i8, ptr %57, i64 %62
  %64 = load i8, ptr %63, align 1, !tbaa !32
  %65 = load ptr, ptr %6, align 8, !tbaa !73
  %66 = getelementptr inbounds nuw i8, ptr %65, i32 1
  store ptr %66, ptr %6, align 8, !tbaa !73
  store i8 %64, ptr %65, align 1, !tbaa !32
  br label %67

67:                                               ; preds = %56
  %68 = load i32, ptr %9, align 4, !tbaa !49
  %69 = add i32 %68, -1
  store i32 %69, ptr %9, align 4, !tbaa !49
  br label %53, !llvm.loop !90

70:                                               ; preds = %53
  call void @llvm.lifetime.end.p0(i64 4, ptr %9) #6
  call void @llvm.lifetime.end.p0(i64 8, ptr %8) #6
  call void @llvm.lifetime.end.p0(i64 8, ptr %7) #6
  call void @llvm.lifetime.end.p0(i64 8, ptr %6) #6
  call void @llvm.lifetime.end.p0(i64 8, ptr %5) #6
  ret i32 1
}