; Function Attrs: nounwind uwtable
define internal noundef i32 @get_scaled_gray_row(ptr noundef %0, ptr noundef readonly captures(none) %1) #0 {
  %3 = getelementptr inbounds nuw i8, ptr %1, i64 88
  %4 = load ptr, ptr %3, align 8, !tbaa !59
  %5 = getelementptr inbounds nuw i8, ptr %1, i64 64
  %6 = load ptr, ptr %5, align 8, !tbaa !54
  %7 = getelementptr inbounds nuw i8, ptr %1, i64 80
  %8 = load i64, ptr %7, align 8, !tbaa !53
  %9 = getelementptr inbounds nuw i8, ptr %1, i64 24
  %10 = load ptr, ptr %9, align 8, !tbaa !43
  %11 = tail call i64 @fread(ptr noundef %6, i64 noundef 1, i64 noundef %8, ptr noundef %10)
  %12 = load i64, ptr %7, align 8, !tbaa !53
  %13 = icmp eq i64 %11, %12
  br i1 %13, label %18, label %14

14:                                               ; preds = %2
  %15 = load ptr, ptr %0, align 8, !tbaa !25
  %16 = getelementptr inbounds nuw i8, ptr %15, i64 40
  store i32 43, ptr %16, align 8, !tbaa !26
  %17 = load ptr, ptr %15, align 8, !tbaa !31
  tail call void %17(ptr noundef nonnull %0) #6
  br label %18

18:                                               ; preds = %14, %2
  %19 = getelementptr inbounds nuw i8, ptr %0, i64 48
  %20 = load i32, ptr %19, align 8, !tbaa !45
  %.not18 = icmp eq i32 %20, 0
  br i1 %.not18, label %._crit_edge, label %.lr.ph.preheader

.lr.ph.preheader:                                 ; preds = %18
  %21 = load ptr, ptr %5, align 8, !tbaa !54
  %22 = getelementptr inbounds nuw i8, ptr %1, i64 32
  %23 = load ptr, ptr %22, align 8, !tbaa !57
  %24 = load ptr, ptr %23, align 8, !tbaa !63
  br label %.lr.ph

.lr.ph:                                           ; preds = %.lr.ph.preheader, %.lr.ph
  %.021 = phi i32 [ %31, %.lr.ph ], [ %20, %.lr.ph.preheader ]
  %.01620 = phi ptr [ %30, %.lr.ph ], [ %24, %.lr.ph.preheader ]
  %.01719 = phi ptr [ %25, %.lr.ph ], [ %21, %.lr.ph.preheader ]
  %25 = getelementptr inbounds nuw i8, ptr %.01719, i64 1
  %26 = load i8, ptr %.01719, align 1, !tbaa !30
  %27 = zext i8 %26 to i64
  %28 = getelementptr inbounds nuw i8, ptr %4, i64 %27
  %29 = load i8, ptr %28, align 1, !tbaa !30
  %30 = getelementptr inbounds nuw i8, ptr %.01620, i64 1
  store i8 %29, ptr %.01620, align 1, !tbaa !30
  %31 = add i32 %.021, -1
  %.not = icmp eq i32 %31, 0
  br i1 %.not, label %._crit_edge, label %.lr.ph, !llvm.loop !80

._crit_edge:                                      ; preds = %.lr.ph, %18
  ret i32 1
}